(imadanalysis.system.architecture_info
ArchitectureInfo
p0
(dp1
S'root_bin_path'
p2
S'/usr/bin'
p3
sS'root_original_bins'
p4
(lp5
S'/usr/bin/root-config'
p6
asS'fastjet_bin_path'
p7
S'/home/s1412595/Desktop/SummerProject2019/MG5_aMC_v2_6_6/HEPTools/madanalysis5/madanalysis5/tools/fastjet/bin'
p8
sS'delphes_lib_paths'
p9
(lp10
sS'has_delphes'
p11
I00
sS'has_root'
p12
I01
sS'root_version'
p13
(lp14
S'6'
p15
aS'12'
p16
aS'06'
p17
asS'fastjet_original_bins'
p18
(lp19
S'/home/s1412595/Desktop/SummerProject2019/MG5_aMC_v2_6_6/HEPTools/madanalysis5/madanalysis5/tools/fastjet/bin/fastjet-config'
p20
asS'toPATH2'
p21
(lp22
sS'python_version'
p23
S'2.7.5 (default, Apr  8 2019, 14:44:40) [GCC 4.8.5 20150623 (Red Hat 4.8.5-36)]'
p24
sS'delphes_lib'
p25
S''
p26
sS'delphes_priority'
p27
I00
sS'gcc_version'
p28
S'4.8.5'
p29
sS'toPATH1'
p30
(lp31
S'/home/s1412595/Desktop/SummerProject2019/MG5_aMC_v2_6_6/HEPTools/madanalysis5/madanalysis5/tools/SampleAnalyzer/ExternalSymLink/Bin'
p32
ag3
ag8
asS'delphes_original_libs'
p33
(lp34
sS'delphesMA5tune_original_libs'
p35
(lp36
sS'fastjet_lib_paths'
p37
(lp38
S'/home/s1412595/Desktop/SummerProject2019/MG5_aMC_v2_6_6/HEPTools/madanalysis5/madanalysis5/tools/fastjet/lib'
p39
asS'gfortran_version'
p40
g26
sS'delphesMA5tune_lib'
p41
g26
sS'libraries'
p42
(dp43
S'TH1F.h'
p44
S'/usr/include/root/TH1F.h:1518160830.0'
p45
sS'libCore.so'
p46
S'/usr/lib64/root/libCore.so:1519071671.0'
p47
sS'ZLib'
p48
S'/home/s1412595/Desktop/SummerProject2019/MG5_aMC_v2_6_6/HEPTools/zlib/lib/libz.so:1561911651.49'
p49
ssS'platform'
p50
S'Linux'
p51
sS'zlib_original_libs'
p52
(lp53
S'/home/s1412595/Desktop/SummerProject2019/MG5_aMC_v2_6_6/HEPTools/zlib/lib/libz.so'
p54
aS'/home/s1412595/Desktop/SummerProject2019/MG5_aMC_v2_6_6/HEPTools/zlib/lib/libz.a'
p55
aS'/home/s1412595/Desktop/SummerProject2019/MG5_aMC_v2_6_6/HEPTools/zlib/lib/libz.so.1'
p56
aS'/home/s1412595/Desktop/SummerProject2019/MG5_aMC_v2_6_6/HEPTools/zlib/lib/libz.so.1.2.10'
p57
asS'root_inc_path'
p58
S'/usr/include/root'
p59
sS'delphes_inc_paths'
p60
(lp61
sS'zlib_lib'
p62
g54
sS'root_priority'
p63
I00
sS'delphesMA5tune_lib_paths'
p64
(lp65
sS'root_features'
p66
(lp67
S'asimage'
p68
aS'astiff'
p69
aS'bonjour'
p70
aS'builtin_llvm'
p71
aS'cling'
p72
aS'cxx11'
p73
aS'davix'
p74
aS'dcache'
p75
aS'exceptions'
p76
aS'explicitlink'
p77
aS'fftw3'
p78
aS'fitsio'
p79
aS'fortran'
p80
aS'gdml'
p81
aS'genvector'
p82
aS'geocad'
p83
aS'gfal'
p84
aS'globus'
p85
aS'gnuinstall'
p86
aS'gsl_shared'
p87
aS'gviz'
p88
aS'http'
p89
aS'krb5'
p90
aS'ldap'
p91
aS'mathmore'
p92
aS'memstat'
p93
aS'minuit2'
p94
aS'mysql'
p95
aS'odbc'
p96
aS'opengl'
p97
aS'pch'
p98
aS'pgsql'
p99
aS'pythia8'
p100
aS'python'
p101
aS'qt'
p102
aS'qtgsi'
p103
aS'r'
p104
aS'rfio'
p105
aS'roofit'
p106
aS'shadowpw'
p107
aS'shared'
p108
aS'soversion'
p109
aS'sqlite'
p110
aS'ssl'
p111
aS'table'
p112
aS'thread'
p113
aS'tmva'
p114
aS'unuran'
p115
aS'x11'
p116
aS'xft'
p117
aS'xml'
p118
aS'xrootd'
p119
asS'has_zlib'
p120
I01
sS'zlib_inc_path'
p121
S'/home/s1412595/Desktop/SummerProject2019/MG5_aMC_v2_6_6/HEPTools/zlib/include'
p122
sS'zlib_lib_path'
p123
S'/home/s1412595/Desktop/SummerProject2019/MG5_aMC_v2_6_6/HEPTools/zlib/lib'
p124
sS'delphesMA5tune_inc_paths'
p125
(lp126
sS'has_delphesMA5tune'
p127
I00
sS'fastjet_priority'
p128
I00
sS'fastjet_version'
p129
g26
sS'root_compiler'
p130
S'c++'
p131
sS'ncores'
p132
I4
sS'ma5dir'
p133
S'/home/s1412595/Desktop/SummerProject2019/MG5_aMC_v2_6_6/HEPTools/madanalysis5/madanalysis5'
p134
sS'root_lib_path'
p135
S'/usr/lib64/root'
p136
sS'delphesMA5tune_priority'
p137
I00
sS'headers'
p138
(dp139
sS'toLDPATH2'
p140
(lp141
sS'toLDPATH1'
p142
(lp143
S'/home/s1412595/Desktop/SummerProject2019/MG5_aMC_v2_6_6/HEPTools/madanalysis5/madanalysis5/tools/SampleAnalyzer/Lib'
p144
aS'/home/s1412595/Desktop/SummerProject2019/MG5_aMC_v2_6_6/HEPTools/madanalysis5/madanalysis5/tools/SampleAnalyzer/ExternalSymLink/Lib'
p145
ag136
ag39
asS'zlib_priority'
p146
I01
sS'ma5_date'
p147
S'2019/04/04'
p148
sS'make_version'
p149
S'GNU Make 3.82'
p150
sS'ma5_version'
p151
S'1.8.5'
p152
sS'has_fastjet'
p153
I01
sS'release'
p154
S'3.10.0-957.5.1.el7.x86_64'
p155
sS'isMac'
p156
I00
sb.