(imadanalysis.system.architecture_info
ArchitectureInfo
p0
(dp1
S'root_bin_path'
p2
S'/usr/bin'
p3
sS'root_original_bins'
p4
(lp5
S'/usr/bin/root-config'
p6
asS'fastjet_bin_path'
p7
S'/home/s1412595/Desktop/SummerProject2019/MG5_aMC_v2_6_6/HEPTools/madanalysis5/madanalysis5/tools/fastjet/bin'
p8
sS'delphes_lib_paths'
p9
(lp10
sS'has_delphes'
p11
I00
sS'has_root'
p12
I01
sS'root_version'
p13
(lp14
S'6'
p15
aS'18'
p16
aS'00'
p17
asS'fastjet_original_bins'
p18
(lp19
S'/home/s1412595/Desktop/SummerProject2019/MG5_aMC_v2_6_6/HEPTools/madanalysis5/madanalysis5/tools/fastjet/bin/fastjet-config'
p20
asS'toPATH2'
p21
(lp22
sS'python_version'
p23
S'2.7.5 (default, Jun 20 2019, 16:11:37) [GCC 4.8.5 20150623 (Red Hat 4.8.5-36)]'
p24
sS'delphes_lib'
p25
S''
p26
sS'delphes_priority'
p27
I00
sS'gcc_version'
p28
S'4.8.5'
p29
sS'toPATH1'
p30
(lp31
S'/home/s1412595/Desktop/SummerProject2019/MG5_aMC_v2_6_6/HEPTools/madanalysis5/madanalysis5/tools/SampleAnalyzer/ExternalSymLink/Bin'
p32
ag3
ag8
asS'delphes_original_libs'
p33
(lp34
sS'delphesMA5tune_original_libs'
p35
(lp36
sS'fastjet_lib_paths'
p37
(lp38
S'/home/s1412595/Desktop/SummerProject2019/MG5_aMC_v2_6_6/HEPTools/madanalysis5/madanalysis5/tools/fastjet/lib'
p39
asS'gfortran_version'
p40
g26
sS'delphesMA5tune_lib'
p41
g26
sS'libraries'
p42
(dp43
S'TH1F.h'
p44
S'/usr/include/root/TH1F.h:1561452731.0'
p45
sS'libCore.so'
p46
S'/usr/lib64/root/libCore.so:1562477227.0'
p47
sS'ZLib'
p48
S'/home/s1412595/Desktop/SummerProject2019/MG5_aMC_v2_6_6/HEPTools/zlib/lib/libz.so:1563963474.37'
p49
ssS'platform'
p50
S'Linux'
p51
sS'zlib_original_libs'
p52
(lp53
S'/home/s1412595/Desktop/SummerProject2019/MG5_aMC_v2_6_6/HEPTools/zlib/lib/libz.so'
p54
aS'/home/s1412595/Desktop/SummerProject2019/MG5_aMC_v2_6_6/HEPTools/zlib/lib/libz.a'
p55
aS'/home/s1412595/Desktop/SummerProject2019/MG5_aMC_v2_6_6/HEPTools/zlib/lib/libz.so.1'
p56
aS'/home/s1412595/Desktop/SummerProject2019/MG5_aMC_v2_6_6/HEPTools/zlib/lib/libz.so.1.2.10'
p57
asS'root_inc_path'
p58
S'/usr/include/root'
p59
sS'delphes_inc_paths'
p60
(lp61
sS'zlib_lib'
p62
g54
sS'root_priority'
p63
I00
sS'delphesMA5tune_lib_paths'
p64
(lp65
sS'root_features'
p66
(lp67
S'asimage'
p68
aS'astiff'
p69
aS'builtin_clang'
p70
aS'builtin_llvm'
p71
aS'cling'
p72
aS'cxx11'
p73
aS'davix'
p74
aS'dcache'
p75
aS'exceptions'
p76
aS'explicitlink'
p77
aS'fftw3'
p78
aS'fitsio'
p79
aS'fortran'
p80
aS'gdml'
p81
aS'gfal'
p82
aS'gnuinstall'
p83
aS'gsl_shared'
p84
aS'gviz'
p85
aS'http'
p86
aS'mathmore'
p87
aS'memstat'
p88
aS'minuit2'
p89
aS'mysql'
p90
aS'odbc'
p91
aS'opengl'
p92
aS'pch'
p93
aS'pgsql'
p94
aS'pythia8'
p95
aS'python'
p96
aS'r'
p97
aS'roofit'
p98
aS'shadowpw'
p99
aS'shared'
p100
aS'soversion'
p101
aS'sqlite'
p102
aS'ssl'
p103
aS'thread'
p104
aS'tmva'
p105
aS'tmva-pymva'
p106
aS'tmva-rmva'
p107
aS'unuran'
p108
aS'vmc'
p109
aS'x11'
p110
aS'xml'
p111
aS'xrootd'
p112
asS'has_zlib'
p113
I01
sS'zlib_inc_path'
p114
S'/home/s1412595/Desktop/SummerProject2019/MG5_aMC_v2_6_6/HEPTools/zlib/include'
p115
sS'zlib_lib_path'
p116
S'/home/s1412595/Desktop/SummerProject2019/MG5_aMC_v2_6_6/HEPTools/zlib/lib'
p117
sS'delphesMA5tune_inc_paths'
p118
(lp119
sS'has_delphesMA5tune'
p120
I00
sS'fastjet_priority'
p121
I00
sS'fastjet_version'
p122
g26
sS'root_compiler'
p123
S'c++'
p124
sS'ncores'
p125
I4
sS'ma5dir'
p126
S'/home/s1412595/Desktop/SummerProject2019/MG5_aMC_v2_6_6/HEPTools/madanalysis5/madanalysis5'
p127
sS'root_lib_path'
p128
S'/usr/lib64/root'
p129
sS'delphesMA5tune_priority'
p130
I00
sS'headers'
p131
(dp132
sS'toLDPATH2'
p133
(lp134
sS'toLDPATH1'
p135
(lp136
S'/home/s1412595/Desktop/SummerProject2019/MG5_aMC_v2_6_6/HEPTools/madanalysis5/madanalysis5/tools/SampleAnalyzer/Lib'
p137
aS'/home/s1412595/Desktop/SummerProject2019/MG5_aMC_v2_6_6/HEPTools/madanalysis5/madanalysis5/tools/SampleAnalyzer/ExternalSymLink/Lib'
p138
ag129
ag39
asS'zlib_priority'
p139
I01
sS'ma5_date'
p140
S'2019/04/04'
p141
sS'make_version'
p142
S'GNU Make 3.82'
p143
sS'ma5_version'
p144
S'1.8.5'
p145
sS'has_fastjet'
p146
I01
sS'release'
p147
S'3.10.0-957.5.1.el7.x86_64'
p148
sS'isMac'
p149
I00
sb.